target datalayout = "e-m:e-p270:32:32-p271:32:32-p272:64:64-i64:64-i128:128-f80:128-n8:16:32:64-S128"
target triple = "x86_64-pc-linux-gnu"

%"struct.faiss::InvertedLists.base" = type <{ ptr, i64, i64, i8 }>
%"struct.faiss::ReadOnlyInvertedLists.base" = type { %"struct.faiss::InvertedLists.base" }
%"struct.faiss::StopWordsInvertedLists" = type { %"struct.faiss::ReadOnlyInvertedLists.base", ptr, i64 }

; Function Attrs: mustprogress uwtable
define noundef i64 @_ZNK5faiss22StopWordsInvertedLists9list_sizeEm(ptr noundef nonnull align 8 dereferenceable(48) %0, i64 noundef %1) unnamed_addr #2 align 2 {
  %3 = alloca ptr, align 8
  %4 = alloca i64, align 8
  %5 = alloca i64, align 8
  store ptr %0, ptr %3, align 8, !tbaa !61
  store i64 %1, ptr %4, align 8, !tbaa !11
  %6 = load ptr, ptr %3, align 8
  call void @llvm.lifetime.start.p0(i64 8, ptr %5) #6
  %7 = getelementptr inbounds nuw %"struct.faiss::StopWordsInvertedLists", ptr %6, i32 0, i32 1
  %8 = load ptr, ptr %7, align 8, !tbaa !63
  %9 = load i64, ptr %4, align 8, !tbaa !11
  %10 = load ptr, ptr %8, align 8, !tbaa !17
  %11 = getelementptr inbounds ptr, ptr %10, i64 2
  %12 = load ptr, ptr %11, align 8
  %13 = call noundef i64 %12(ptr noundef nonnull align 8 dereferenceable(25) %8, i64 noundef %9)
  store i64 %13, ptr %5, align 8, !tbaa !11
  %14 = load i64, ptr %5, align 8, !tbaa !11
  %15 = getelementptr inbounds nuw %"struct.faiss::StopWordsInvertedLists", ptr %6, i32 0, i32 2
  %16 = load i64, ptr %15, align 8, !tbaa !65
  %17 = icmp ult i64 %14, %16
  br i1 %17, label %18, label %20

18:                                               ; preds = %2
  %19 = load i64, ptr %5, align 8, !tbaa !11
  br label %21

20:                                               ; preds = %2
  br label %21

21:                                               ; preds = %20, %18
  %22 = phi i64 [ %19, %18 ], [ 0, %20 ]
  call void @llvm.lifetime.end.p0(i64 8, ptr %5) #6
  ret i64 %22
}