; Function Attrs: mustprogress uwtable
define noundef i64 @_ZNK5faiss22StopWordsInvertedLists9list_sizeEm(ptr noundef nonnull readonly align 8 captures(none) dereferenceable(48) %0, i64 noundef %1) unnamed_addr #2 align 2 {
  %3 = getelementptr inbounds nuw i8, ptr %0, i64 32
  %4 = load ptr, ptr %3, align 8, !tbaa !80
  %5 = load ptr, ptr %4, align 8, !tbaa !4
  %6 = getelementptr inbounds nuw i8, ptr %5, i64 16
  %7 = load ptr, ptr %6, align 8
  %8 = tail call noundef i64 %7(ptr noundef nonnull align 8 dereferenceable(25) %4, i64 noundef %1)
  %9 = getelementptr inbounds nuw i8, ptr %0, i64 40
  %10 = load i64, ptr %9, align 8, !tbaa !82
  %11 = icmp ult i64 %8, %10
  %12 = select i1 %11, i64 %8, i64 0
  ret i64 %12
}